target datalayout = "e-m:e-p270:32:32-p271:32:32-p272:64:64-i64:64-i128:128-f80:128-n8:16:32:64-S128"
target triple = "x86_64-pc-linux-gnu"

%struct.mpd_context_t = type { i64, i64, i64, i32, i32, i32, i32, i32, i32 }

@mpd_traphandler = hidden global ptr @mpd_dflt_traphandler, align 8

; Function Attrs: nounwind uwtable
define hidden void @mpd_addstatus_raise(ptr noundef %0, i32 noundef %1) #0 {
  %3 = alloca ptr, align 8
  %4 = alloca i32, align 4
  store ptr %0, ptr %3, align 8, !tbaa !3
  store i32 %1, ptr %4, align 4, !tbaa !10
  %5 = load i32, ptr %4, align 4, !tbaa !10
  %6 = load ptr, ptr %3, align 8, !tbaa !3
  %7 = getelementptr inbounds nuw %struct.mpd_context_t, ptr %6, i32 0, i32 4
  %8 = load i32, ptr %7, align 4, !tbaa !20
  %9 = or i32 %8, %5
  store i32 %9, ptr %7, align 4, !tbaa !20
  %10 = load i32, ptr %4, align 4, !tbaa !10
  %11 = load ptr, ptr %3, align 8, !tbaa !3
  %12 = getelementptr inbounds nuw %struct.mpd_context_t, ptr %11, i32 0, i32 3
  %13 = load i32, ptr %12, align 8, !tbaa !19
  %14 = and i32 %10, %13
  %15 = icmp ne i32 %14, 0
  br i1 %15, label %16, label %26

16:                                               ; preds = %2
  %17 = load i32, ptr %4, align 4, !tbaa !10
  %18 = load ptr, ptr %3, align 8, !tbaa !3
  %19 = getelementptr inbounds nuw %struct.mpd_context_t, ptr %18, i32 0, i32 3
  %20 = load i32, ptr %19, align 8, !tbaa !19
  %21 = and i32 %17, %20
  %22 = load ptr, ptr %3, align 8, !tbaa !3
  %23 = getelementptr inbounds nuw %struct.mpd_context_t, ptr %22, i32 0, i32 5
  store i32 %21, ptr %23, align 8, !tbaa !21
  %24 = load ptr, ptr @mpd_traphandler, align 8, !tbaa !24
  %25 = load ptr, ptr %3, align 8, !tbaa !3
  call void %24(ptr noundef %25)
  br label %26

26:                                               ; preds = %16, %2
  ret void
}

; Function Attrs: nounwind uwtable
define hidden i32 @mpd_qsetprec(ptr noundef %0, i64 noundef %1) #0 {
  %3 = alloca i32, align 4
  %4 = alloca ptr, align 8
  %5 = alloca i64, align 8
  store ptr %0, ptr %4, align 8, !tbaa !3
  store i64 %1, ptr %5, align 8, !tbaa !8
  %6 = load i64, ptr %5, align 8, !tbaa !8
  %7 = icmp sle i64 %6, 0
  br i1 %7, label %11, label %8

8:                                                ; preds = %2
  %9 = load i64, ptr %5, align 8, !tbaa !8
  %10 = icmp sgt i64 %9, 999999999999999999
  br i1 %10, label %11, label %12

11:                                               ; preds = %8, %2
  store i32 0, ptr %3, align 4
  br label %16

12:                                               ; preds = %8
  %13 = load i64, ptr %5, align 8, !tbaa !8
  %14 = load ptr, ptr %4, align 8, !tbaa !3
  %15 = getelementptr inbounds nuw %struct.mpd_context_t, ptr %14, i32 0, i32 0
  store i64 %13, ptr %15, align 8, !tbaa !14
  store i32 1, ptr %3, align 4
  br label %16

16:                                               ; preds = %12, %11
  %17 = load i32, ptr %3, align 4
  ret i32 %17
}

; Function Attrs: nounwind uwtable
define hidden void @mpd_defaultcontext(ptr noundef %0) #0 {
  %2 = alloca ptr, align 8
  store ptr %0, ptr %2, align 8, !tbaa !3
  %3 = load ptr, ptr %2, align 8, !tbaa !3
  %4 = getelementptr inbounds nuw %struct.mpd_context_t, ptr %3, i32 0, i32 0
  store i64 38, ptr %4, align 8, !tbaa !14
  %5 = load ptr, ptr %2, align 8, !tbaa !3
  %6 = getelementptr inbounds nuw %struct.mpd_context_t, ptr %5, i32 0, i32 1
  store i64 999999999999999999, ptr %6, align 8, !tbaa !16
  %7 = load ptr, ptr %2, align 8, !tbaa !3
  %8 = getelementptr inbounds nuw %struct.mpd_context_t, ptr %7, i32 0, i32 2
  store i64 -999999999999999999, ptr %8, align 8, !tbaa !17
  %9 = load ptr, ptr %2, align 8, !tbaa !3
  %10 = getelementptr inbounds nuw %struct.mpd_context_t, ptr %9, i32 0, i32 6
  store i32 4, ptr %10, align 4, !tbaa !18
  %11 = load ptr, ptr %2, align 8, !tbaa !3
  %12 = getelementptr inbounds nuw %struct.mpd_context_t, ptr %11, i32 0, i32 3
  store i32 19390, ptr %12, align 8, !tbaa !19
  %13 = load ptr, ptr %2, align 8, !tbaa !3
  %14 = getelementptr inbounds nuw %struct.mpd_context_t, ptr %13, i32 0, i32 4
  store i32 0, ptr %14, align 4, !tbaa !20
  %15 = load ptr, ptr %2, align 8, !tbaa !3
  %16 = getelementptr inbounds nuw %struct.mpd_context_t, ptr %15, i32 0, i32 5
  store i32 0, ptr %16, align 8, !tbaa !21
  %17 = load ptr, ptr %2, align 8, !tbaa !3
  %18 = getelementptr inbounds nuw %struct.mpd_context_t, ptr %17, i32 0, i32 7
  store i32 0, ptr %18, align 8, !tbaa !22
  %19 = load ptr, ptr %2, align 8, !tbaa !3
  %20 = getelementptr inbounds nuw %struct.mpd_context_t, ptr %19, i32 0, i32 8
  store i32 1, ptr %20, align 4, !tbaa !23
  ret void
}

; Function Attrs: nounwind uwtable
define hidden void @mpd_init(ptr noundef %0, i64 noundef %1) #0 {
  %3 = alloca ptr, align 8
  %4 = alloca i64, align 8
  %5 = alloca i64, align 8
  %6 = alloca i32, align 4
  store ptr %0, ptr %3, align 8, !tbaa !3
  store i64 %1, ptr %4, align 8, !tbaa !8
  call void @llvm.lifetime.start.p0(i64 8, ptr %5) #5
  %7 = load ptr, ptr %3, align 8, !tbaa !3
  call void @mpd_defaultcontext(ptr noundef %7)
  %8 = load ptr, ptr %3, align 8, !tbaa !3
  %9 = load i64, ptr %4, align 8, !tbaa !8
  %10 = call i32 @mpd_qsetprec(ptr noundef %8, i64 noundef %9)
  %11 = icmp ne i32 %10, 0
  br i1 %11, label %14, label %12

12:                                               ; preds = %2
  %13 = load ptr, ptr %3, align 8, !tbaa !3
  call void @mpd_addstatus_raise(ptr noundef %13, i32 noundef 128)
  store i32 1, ptr %6, align 4
  br label %29

14:                                               ; preds = %2
  %15 = load i64, ptr %4, align 8, !tbaa !8
  %16 = add i64 %15, 19
  %17 = sub i64 %16, 1
  %18 = sdiv i64 %17, 19
  %19 = mul i64 2, %18
  store i64 %19, ptr %5, align 8, !tbaa !8
  %20 = load i64, ptr %5, align 8, !tbaa !8
  %21 = icmp slt i64 %20, 2
  br i1 %21, label %22, label %23

22:                                               ; preds = %14
  store i64 2, ptr %5, align 8, !tbaa !8
  br label %23

23:                                               ; preds = %22, %14
  %24 = load i64, ptr %5, align 8, !tbaa !8
  %25 = icmp sgt i64 %24, 64
  br i1 %25, label %26, label %27

26:                                               ; preds = %23
  store i64 64, ptr %5, align 8, !tbaa !8
  br label %27

27:                                               ; preds = %26, %23
  %28 = load i64, ptr %5, align 8, !tbaa !8
  call void @mpd_setminalloc(i64 noundef %28)
  store i32 0, ptr %6, align 4
  br label %29

29:                                               ; preds = %27, %12
  call void @llvm.lifetime.end.p0(i64 8, ptr %5) #5
  %30 = load i32, ptr %6, align 4
  switch i32 %30, label %32 [
    i32 0, label %31
    i32 1, label %31
  ]

31:                                               ; preds = %29, %29
  ret void

32:                                               ; preds = %29
  unreachable
}