; Function Attrs: nounwind uwtable
define hidden void @mpd_init(ptr noundef initializes((0, 48)) %0, i64 noundef %1) local_unnamed_addr #0 {
  store i64 38, ptr %0, align 8, !tbaa !10
  %3 = getelementptr inbounds nuw i8, ptr %0, i64 8
  store i64 999999999999999999, ptr %3, align 8, !tbaa !13
  %4 = getelementptr inbounds nuw i8, ptr %0, i64 16
  store i64 -999999999999999999, ptr %4, align 8, !tbaa !14
  %5 = getelementptr inbounds nuw i8, ptr %0, i64 36
  store i32 4, ptr %5, align 4, !tbaa !15
  %6 = getelementptr inbounds nuw i8, ptr %0, i64 24
  store i32 19390, ptr %6, align 8, !tbaa !16
  %7 = getelementptr inbounds nuw i8, ptr %0, i64 28
  store i32 0, ptr %7, align 4, !tbaa !17
  %8 = getelementptr inbounds nuw i8, ptr %0, i64 32
  store i32 0, ptr %8, align 8, !tbaa !18
  %9 = getelementptr inbounds nuw i8, ptr %0, i64 40
  store i32 0, ptr %9, align 8, !tbaa !19
  %10 = getelementptr inbounds nuw i8, ptr %0, i64 44
  store i32 1, ptr %10, align 4, !tbaa !20
  %11 = add i64 %1, -1000000000000000000
  %or.cond.i = icmp ult i64 %11, -999999999999999999
  br i1 %or.cond.i, label %mpd_addstatus_raise.exit, label %13

mpd_addstatus_raise.exit:                         ; preds = %2
  store i32 128, ptr %7, align 4, !tbaa !17
  store i32 128, ptr %8, align 8, !tbaa !18
  %12 = load ptr, ptr @mpd_traphandler, align 8, !tbaa !21
  tail call void %12(ptr noundef nonnull %0) #9
  br label %17

13:                                               ; preds = %2
  store i64 %1, ptr %0, align 8, !tbaa !10
  %14 = add nuw nsw i64 %1, 18
  %15 = udiv i64 %14, 19
  %16 = shl nuw nsw i64 %15, 1
  %spec.store.select1 = tail call i64 @llvm.umin.i64(i64 %16, i64 64)
  tail call void @mpd_setminalloc(i64 noundef %spec.store.select1)
  br label %17

17:                                               ; preds = %13, %mpd_addstatus_raise.exit
  ret void
}